; Function Attrs: nounwind uwtable
define internal i32 @HIDAPI_JoystickGetDeviceSteamVirtualGamepadSlot(i32 noundef %0) #0 {
  tail call void @SDL_AssertJoysticksLocked() #9
  %.024.i = load ptr, ptr @SDL_HIDAPI_devices, align 8
  %.not25.i = icmp eq ptr %.024.i, null
  br i1 %.not25.i, label %HIDAPI_GetDeviceByIndex.exit.thread, label %.lr.ph.i

.lr.ph.i:                                         ; preds = %1, %17
  %.027.i = phi ptr [ %.0.i, %17 ], [ %.024.i, %1 ]
  %.01526.i = phi i32 [ %.1.i, %17 ], [ %0, %1 ]
  %2 = getelementptr inbounds nuw i8, ptr %.027.i, i64 160
  %3 = load ptr, ptr %2, align 8
  %.not18.i = icmp eq ptr %3, null
  br i1 %.not18.i, label %4, label %17

4:                                                ; preds = %.lr.ph.i
  %5 = getelementptr inbounds nuw i8, ptr %.027.i, i64 154
  %6 = load i8, ptr %5, align 2, !range !6, !noundef !7
  %7 = trunc nuw i8 %6 to i1
  br i1 %7, label %17, label %8

8:                                                ; preds = %4
  %9 = getelementptr inbounds nuw i8, ptr %.027.i, i64 104
  %10 = load ptr, ptr %9, align 8
  %.not19.i = icmp eq ptr %10, null
  br i1 %.not19.i, label %17, label %11

11:                                               ; preds = %8
  %12 = getelementptr inbounds nuw i8, ptr %.027.i, i64 140
  %13 = load i32, ptr %12, align 4
  %14 = icmp slt i32 %.01526.i, %13
  br i1 %14, label %HIDAPI_GetDeviceByIndex.exit, label %15

15:                                               ; preds = %11
  %16 = sub nsw i32 %.01526.i, %13
  br label %17

17:                                               ; preds = %15, %8, %4, %.lr.ph.i
  %.1.i = phi i32 [ %.01526.i, %.lr.ph.i ], [ %.01526.i, %4 ], [ %16, %15 ], [ %.01526.i, %8 ]
  %18 = getelementptr inbounds nuw i8, ptr %.027.i, i64 184
  %.0.i = load ptr, ptr %18, align 8
  %.not.i = icmp eq ptr %.0.i, null
  br i1 %.not.i, label %HIDAPI_GetDeviceByIndex.exit.thread, label %.lr.ph.i, !llvm.loop !37

HIDAPI_GetDeviceByIndex.exit:                     ; preds = %11
  %19 = getelementptr inbounds nuw i8, ptr %.027.i, i64 96
  %20 = load i32, ptr %19, align 8
  br label %HIDAPI_GetDeviceByIndex.exit.thread

HIDAPI_GetDeviceByIndex.exit.thread:              ; preds = %17, %1, %HIDAPI_GetDeviceByIndex.exit
  %.0 = phi i32 [ %20, %HIDAPI_GetDeviceByIndex.exit ], [ -1, %1 ], [ -1, %17 ]
  ret i32 %.0
}